; Function Attrs: mustprogress uwtable
define hidden void @_ZN3opt10opt_solver11updt_paramsERK10params_ref(ptr noundef nonnull align 8 dereferenceable(1042) %0, ptr noundef nonnull align 8 dereferenceable(8) %1) unnamed_addr #4 align 2 personality ptr @__gxx_personality_v0 {
  %3 = alloca %struct.opt_params, align 8
  call void @llvm.lifetime.start.p0(i64 16, ptr nonnull %3) #26
  store ptr %1, ptr %3, align 8, !tbaa !293
  %4 = getelementptr inbounds nuw i8, ptr %3, i64 8
  call void @_ZN7gparams10get_moduleEPKc(ptr dead_on_unwind nonnull writable sret(%class.params_ref) align 8 %4, ptr noundef nonnull @.str.23)
  %5 = load ptr, ptr %3, align 8, !tbaa !295
  %6 = invoke noundef zeroext i1 @_ZNK10params_ref8get_boolEPKcRKS_b(ptr noundef nonnull align 8 dereferenceable(8) %5, ptr noundef nonnull @.str.24, ptr noundef nonnull align 8 dereferenceable(8) %4, i1 noundef zeroext false)
          to label %_ZNK10opt_params15dump_benchmarksEv.exit unwind label %14

_ZNK10opt_params15dump_benchmarksEv.exit:         ; preds = %2
  %7 = getelementptr inbounds nuw i8, ptr %0, i64 1016
  %8 = zext i1 %6 to i8
  store i8 %8, ptr %7, align 8, !tbaa !19
  %9 = getelementptr inbounds nuw i8, ptr %0, i64 120
  invoke void @_ZN10smt_params11updt_paramsERK10params_ref(ptr noundef nonnull align 8 dereferenceable(808) %9, ptr noundef nonnull align 8 dereferenceable(8) %1)
          to label %10 unwind label %14

10:                                               ; preds = %_ZNK10opt_params15dump_benchmarksEv.exit
  %11 = getelementptr inbounds nuw i8, ptr %0, i64 928
  invoke void @_ZN3smt6kernel11updt_paramsERK10params_ref(ptr noundef nonnull align 8 dereferenceable(8) %11, ptr noundef nonnull align 8 dereferenceable(8) %1)
          to label %12 unwind label %14

12:                                               ; preds = %10
  %13 = getelementptr inbounds nuw i8, ptr %0, i64 376
  store i8 1, ptr %13, align 8, !tbaa !97
  call void @_ZN10params_refD1Ev(ptr noundef nonnull align 8 dereferenceable(8) %4) #26
  call void @llvm.lifetime.end.p0(i64 16, ptr nonnull %3) #26
  ret void

14:                                               ; preds = %2, %10, %_ZNK10opt_params15dump_benchmarksEv.exit
  %15 = landingpad { ptr, i32 }
          cleanup
  call void @_ZN10params_refD1Ev(ptr noundef nonnull align 8 dereferenceable(8) %4) #26
  call void @llvm.lifetime.end.p0(i64 16, ptr nonnull %3) #26
  resume { ptr, i32 } %15
}